target datalayout = "e-m:e-p270:32:32-p271:32:32-p272:64:64-i64:64-i128:128-f80:128-n8:16:32:64-S128"
target triple = "x86_64-pc-linux-gnu"

%struct._zend_phpdbg_globals = type { [11 x %struct._zend_array], %struct._zend_array, %struct._zend_array, ptr, ptr, %struct.phpdbg_frame_t, i32, ptr, %struct.phpdbg_lexer_data, ptr, %struct.sigaction, i32, i64, %struct.phpdbg_btree, %struct.phpdbg_btree, %struct._zend_array, %struct._zend_array, %struct._zend_array, %struct._zend_array, ptr, ptr, i8, ptr, ptr, ptr, i64, ptr, %struct._zval_struct, i32, i32, i8, i8, ptr, ptr, ptr, %struct._zend_array, ptr, ptr, ptr, [3 x %struct.anon.8], ptr, %struct.anon.9, i64, [2 x ptr], [3 x ptr], ptr, i8, ptr, ptr, [500 x i8], i32, %struct.phpdbg_signal_safe_mem, ptr, i64, ptr, i64 }
%struct.phpdbg_frame_t = type { i32, ptr, ptr }
%struct.phpdbg_lexer_data = type { i32, ptr, ptr, ptr, ptr, i32 }
%struct.sigaction = type { %union.anon.2, %struct.__sigset_t, i32, ptr }
%union.anon.2 = type { ptr }
%struct.__sigset_t = type { [16 x i64] }
%struct.phpdbg_btree = type { i64, i64, i8, ptr }
%struct._zval_struct = type { %union._zend_value, %union.anon.4, %union.anon.7 }
%union._zend_value = type { i64 }
%union.anon.4 = type { i32 }
%union.anon.7 = type { i32 }
%struct._zend_array = type { %struct._zend_refcounted_h, %union.anon.0, i32, %union.anon.1, i32, i32, i32, i32, i64, ptr }
%struct._zend_refcounted_h = type { i32, %union.anon }
%union.anon = type { i32 }
%union.anon.0 = type { i32 }
%union.anon.1 = type { ptr }
%struct.anon.8 = type { i32 }
%struct.anon.9 = type { i8, i32, i32, ptr, i32 }
%struct.phpdbg_signal_safe_mem = type { ptr, i8, ptr, ptr }
%struct.stat = type { i64, i64, i64, i32, i32, i32, i32, i64, i64, i64, i64, %struct.timespec, %struct.timespec, %struct.timespec, [3 x i64] }
%struct.timespec = type { i64, i64 }
%struct.phpdbg_init_state = type { i32, i8, ptr, i64, ptr }

@.str.62 = private unnamed_addr constant [2 x i8] c"r\00", align 1
@phpdbg_globals = external global %struct._zend_phpdbg_globals, align 8
@.str.63 = private unnamed_addr constant [37 x i8] c"Failed to open %s for initialization\00", align 1

; Function Attrs: nounwind uwtable
define hidden void @phpdbg_try_file_init(ptr noundef %0, i64 noundef %1, i1 noundef zeroext %2) #0 {
  %4 = alloca ptr, align 8
  %5 = alloca i64, align 8
  %6 = alloca i8, align 1
  %7 = alloca %struct.stat, align 8
  %8 = alloca ptr, align 8
  %9 = alloca [500 x i8], align 16
  %10 = alloca %struct.phpdbg_init_state, align 8
  store ptr %0, ptr %4, align 8
  store i64 %1, ptr %5, align 8
  %11 = zext i1 %2 to i8
  store i8 %11, ptr %6, align 1
  call void @llvm.memset.p0.i64(ptr align 8 %7, i8 0, i64 144, i1 false)
  %12 = load ptr, ptr %4, align 8
  %13 = icmp ne ptr %12, null
  br i1 %13, label %14, label %53

14:                                               ; preds = %3
  %15 = load ptr, ptr %4, align 8
  %16 = call i32 @stat(ptr noundef %15, ptr noundef %7) #15
  %17 = icmp ne i32 %16, -1
  br i1 %17, label %18, label %53

18:                                               ; preds = %14
  %19 = load ptr, ptr %4, align 8
  %20 = call noalias ptr @fopen(ptr noundef %19, ptr noundef @.str.62)
  store ptr %20, ptr %8, align 8
  %21 = load ptr, ptr %8, align 8
  %22 = icmp ne ptr %21, null
  br i1 %22, label %23, label %43

23:                                               ; preds = %18
  call void @llvm.memset.p0.i64(ptr align 8 %10, i8 0, i64 32, i1 false)
  %24 = load ptr, ptr %4, align 8
  %25 = getelementptr inbounds %struct.phpdbg_init_state, ptr %10, i32 0, i32 4
  store ptr %24, ptr %25, align 8
  br label %26

26:                                               ; preds = %31, %23
  %27 = getelementptr inbounds [500 x i8], ptr %9, i64 0, i64 0
  %28 = load ptr, ptr %8, align 8
  %29 = call ptr @fgets(ptr noundef %27, i32 noundef 500, ptr noundef %28)
  %30 = icmp ne ptr %29, null
  br i1 %30, label %31, label %33

31:                                               ; preds = %26
  %32 = getelementptr inbounds [500 x i8], ptr %9, i64 0, i64 0
  call void @phpdbg_line_init(ptr noundef %32, ptr noundef %10)
  br label %26

33:                                               ; preds = %26
  %34 = getelementptr inbounds %struct.phpdbg_init_state, ptr %10, i32 0, i32 2
  %35 = load ptr, ptr %34, align 8
  %36 = icmp ne ptr %35, null
  br i1 %36, label %37, label %40

37:                                               ; preds = %33
  %38 = getelementptr inbounds %struct.phpdbg_init_state, ptr %10, i32 0, i32 2
  %39 = load ptr, ptr %38, align 8
  call void @free(ptr noundef %39) #15
  br label %40

40:                                               ; preds = %37, %33
  %41 = load ptr, ptr %8, align 8
  %42 = call i32 @fclose(ptr noundef %41)
  br label %47

43:                                               ; preds = %18
  %44 = load i32, ptr getelementptr inbounds (%struct._zend_phpdbg_globals, ptr @phpdbg_globals, i32 0, i32 39, i64 1), align 4
  %45 = load ptr, ptr %4, align 8
  %46 = call i32 (i32, i32, ptr, ...) @phpdbg_print(i32 noundef 1, i32 noundef %44, ptr noundef @.str.63, ptr noundef %45)
  br label %47

47:                                               ; preds = %43, %40
  %48 = load i8, ptr %6, align 1
  %49 = trunc i8 %48 to i1
  br i1 %49, label %50, label %52

50:                                               ; preds = %47
  %51 = load ptr, ptr %4, align 8
  call void @free(ptr noundef %51) #15
  br label %52

52:                                               ; preds = %50, %47
  br label %53

53:                                               ; preds = %52, %14, %3
  ret void
}