; Function Attrs: nounwind uwtable
define hidden void @phpdbg_try_file_init(ptr noundef %0, i64 %1, i1 noundef zeroext %2) local_unnamed_addr #0 {
  %4 = alloca %struct.stat, align 8
  %5 = alloca [500 x i8], align 16
  %6 = alloca %struct.phpdbg_init_state, align 8
  call void @llvm.memset.p0.i64(ptr noundef nonnull align 8 dereferenceable(144) %4, i8 0, i64 144, i1 false)
  %.not = icmp eq ptr %0, null
  br i1 %.not, label %22, label %7

7:                                                ; preds = %3
  %8 = call i32 @stat(ptr noundef nonnull %0, ptr noundef nonnull %4) #24
  %.not11 = icmp eq i32 %8, -1
  br i1 %.not11, label %22, label %9

9:                                                ; preds = %7
  %10 = tail call noalias ptr @fopen(ptr noundef nonnull %0, ptr noundef nonnull @.str.62)
  %.not12 = icmp eq ptr %10, null
  br i1 %.not12, label %17, label %11

11:                                               ; preds = %9
  call void @llvm.memset.p0.i64(ptr noundef nonnull align 8 dereferenceable(32) %6, i8 0, i64 24, i1 false)
  %12 = getelementptr inbounds i8, ptr %6, i64 24
  store ptr %0, ptr %12, align 8
  %13 = call ptr @fgets(ptr noundef nonnull %5, i32 noundef 500, ptr noundef nonnull %10)
  %.not1315 = icmp eq ptr %13, null
  br i1 %.not1315, label %._crit_edge.thread, label %.lr.ph

.lr.ph:                                           ; preds = %11, %.lr.ph
  call fastcc void @phpdbg_line_init(ptr noundef nonnull %5, ptr noundef nonnull %6)
  %14 = call ptr @fgets(ptr noundef nonnull %5, i32 noundef 500, ptr noundef nonnull %10)
  %.not13 = icmp eq ptr %14, null
  br i1 %.not13, label %._crit_edge, label %.lr.ph

._crit_edge:                                      ; preds = %.lr.ph
  %.phi.trans.insert = getelementptr inbounds i8, ptr %6, i64 8
  %.pre = load ptr, ptr %.phi.trans.insert, align 8
  %.not14 = icmp eq ptr %.pre, null
  br i1 %.not14, label %._crit_edge.thread, label %15

15:                                               ; preds = %._crit_edge
  call void @free(ptr noundef nonnull %.pre) #24
  br label %._crit_edge.thread

._crit_edge.thread:                               ; preds = %11, %15, %._crit_edge
  %16 = call i32 @fclose(ptr noundef nonnull %10)
  br label %20

17:                                               ; preds = %9
  %18 = load i32, ptr getelementptr inbounds (%struct._zend_phpdbg_globals, ptr @phpdbg_globals, i64 0, i32 39, i64 1), align 4
  %19 = tail call i32 (i32, i32, ptr, ...) @phpdbg_print(i32 noundef 1, i32 noundef %18, ptr noundef nonnull @.str.63, ptr noundef nonnull %0) #24
  br label %20

20:                                               ; preds = %17, %._crit_edge.thread
  br i1 %2, label %21, label %22

21:                                               ; preds = %20
  call void @free(ptr noundef %0) #24
  br label %22

22:                                               ; preds = %20, %21, %7, %3
  ret void
}